; ModuleID = '57/2478.c'
source_filename = "57/2478.c"
target datalayout = "e-m:e-p270:32:32-p271:32:32-p272:64:64-i64:64-f80:128-n8:16:32:64-S128"
target triple = "x86_64-pc-linux-gnu"

@__const.main.local = private unnamed_addr constant [3 x [5 x i8]] [[5 x i8] c"er\00\00\00", [5 x i8] c"ly\00\00\00", [5 x i8] c"ing\00\00"], align 1
@.str = private unnamed_addr constant [3 x i8] c"%d\00", align 1
@.str.1 = private unnamed_addr constant [3 x i8] c"%s\00", align 1
@.str.2 = private unnamed_addr constant [3 x i8] c"%c\00", align 1
@.str.3 = private unnamed_addr constant [2 x i8] c"\0A\00", align 1
@.str.4 = private unnamed_addr constant [4 x i8] c"%s\0A\00", align 1

; Function Attrs: noinline nounwind uwtable
define dso_local i32 @main() #0 {
  %1 = alloca i32, align 4
  %2 = alloca i32, align 4
  %3 = alloca [40 x i8], align 16
  %4 = alloca [3 x [5 x i8]], align 1
  %5 = alloca [40 x i8], align 16
  %6 = alloca i32, align 4
  %7 = alloca i32, align 4
  %8 = alloca i32, align 4
  %9 = alloca i32, align 4
  store i32 0, i32* %1, align 4
  %10 = bitcast [3 x [5 x i8]]* %4 to i8*
  call void @llvm.memcpy.p0i8.p0i8.i64(i8* align 1 %10, i8* align 1 getelementptr inbounds ([3 x [5 x i8]], [3 x [5 x i8]]* @__const.main.local, i32 0, i32 0, i32 0), i64 15, i1 false)
  %11 = call i32 (i8*, ...) @__isoc99_scanf(i8* getelementptr inbounds ([3 x i8], [3 x i8]* @.str, i64 0, i64 0), i32* %2)
  br label %12

12:                                               ; preds = %119, %0
  %13 = load i32, i32* %2, align 4
  %14 = add nsw i32 %13, -1
  store i32 %14, i32* %2, align 4
  %15 = icmp ne i32 %13, 0
  br i1 %15, label %16, label %120

16:                                               ; preds = %12
  %17 = getelementptr inbounds [40 x i8], [40 x i8]* %3, i64 0, i64 0
  %18 = call i32 (i8*, ...) @__isoc99_scanf(i8* getelementptr inbounds ([3 x i8], [3 x i8]* @.str.1, i64 0, i64 0), i8* %17)
  %19 = getelementptr inbounds [40 x i8], [40 x i8]* %3, i64 0, i64 0
  %20 = call i64 @strlen(i8* %19) #4
  %21 = trunc i64 %20 to i32
  store i32 %21, i32* %6, align 4
  %22 = load i32, i32* %6, align 4
  %23 = icmp sgt i32 %22, 2
  br i1 %23, label %24, label %52

24:                                               ; preds = %16
  %25 = getelementptr inbounds [40 x i8], [40 x i8]* %3, i64 0, i64 0
  %26 = load i32, i32* %6, align 4
  %27 = sext i32 %26 to i64
  %28 = getelementptr inbounds i8, i8* %25, i64 %27
  %29 = getelementptr inbounds i8, i8* %28, i64 -2
  %30 = getelementptr inbounds [3 x [5 x i8]], [3 x [5 x i8]]* %4, i64 0, i64 0
  %31 = getelementptr inbounds [5 x i8], [5 x i8]* %30, i64 0, i64 0
  %32 = call i32 @strcmp(i8* %29, i8* %31) #4
  %33 = icmp eq i32 %32, 0
  br i1 %33, label %34, label %52

34:                                               ; preds = %24
  store i32 0, i32* %7, align 4
  br label %35

35:                                               ; preds = %47, %34
  %36 = load i32, i32* %7, align 4
  %37 = load i32, i32* %6, align 4
  %38 = sub nsw i32 %37, 2
  %39 = icmp slt i32 %36, %38
  br i1 %39, label %40, label %50

40:                                               ; preds = %35
  %41 = load i32, i32* %7, align 4
  %42 = sext i32 %41 to i64
  %43 = getelementptr inbounds [40 x i8], [40 x i8]* %3, i64 0, i64 %42
  %44 = load i8, i8* %43, align 1
  %45 = sext i8 %44 to i32
  %46 = call i32 (i8*, ...) @printf(i8* getelementptr inbounds ([3 x i8], [3 x i8]* @.str.2, i64 0, i64 0), i32 %45)
  br label %47

47:                                               ; preds = %40
  %48 = load i32, i32* %7, align 4
  %49 = add nsw i32 %48, 1
  store i32 %49, i32* %7, align 4
  br label %35

50:                                               ; preds = %35
  %51 = call i32 (i8*, ...) @printf(i8* getelementptr inbounds ([2 x i8], [2 x i8]* @.str.3, i64 0, i64 0))
  br label %119

52:                                               ; preds = %24, %16
  %53 = load i32, i32* %6, align 4
  %54 = icmp sgt i32 %53, 2
  br i1 %54, label %55, label %83

55:                                               ; preds = %52
  %56 = getelementptr inbounds [40 x i8], [40 x i8]* %3, i64 0, i64 0
  %57 = load i32, i32* %6, align 4
  %58 = sext i32 %57 to i64
  %59 = getelementptr inbounds i8, i8* %56, i64 %58
  %60 = getelementptr inbounds i8, i8* %59, i64 -2
  %61 = getelementptr inbounds [3 x [5 x i8]], [3 x [5 x i8]]* %4, i64 0, i64 1
  %62 = getelementptr inbounds [5 x i8], [5 x i8]* %61, i64 0, i64 0
  %63 = call i32 @strcmp(i8* %60, i8* %62) #4
  %64 = icmp eq i32 %63, 0
  br i1 %64, label %65, label %83

65:                                               ; preds = %55
  store i32 0, i32* %8, align 4
  br label %66

66:                                               ; preds = %78, %65
  %67 = load i32, i32* %8, align 4
  %68 = load i32, i32* %6, align 4
  %69 = sub nsw i32 %68, 2
  %70 = icmp slt i32 %67, %69
  br i1 %70, label %71, label %81

71:                                               ; preds = %66
  %72 = load i32, i32* %8, align 4
  %73 = sext i32 %72 to i64
  %74 = getelementptr inbounds [40 x i8], [40 x i8]* %3, i64 0, i64 %73
  %75 = load i8, i8* %74, align 1
  %76 = sext i8 %75 to i32
  %77 = call i32 (i8*, ...) @printf(i8* getelementptr inbounds ([3 x i8], [3 x i8]* @.str.2, i64 0, i64 0), i32 %76)
  br label %78

78:                                               ; preds = %71
  %79 = load i32, i32* %8, align 4
  %80 = add nsw i32 %79, 1
  store i32 %80, i32* %8, align 4
  br label %66

81:                                               ; preds = %66
  %82 = call i32 (i8*, ...) @printf(i8* getelementptr inbounds ([2 x i8], [2 x i8]* @.str.3, i64 0, i64 0))
  br label %118

83:                                               ; preds = %55, %52
  %84 = load i32, i32* %6, align 4
  %85 = icmp sgt i32 %84, 3
  br i1 %85, label %86, label %114

86:                                               ; preds = %83
  %87 = getelementptr inbounds [40 x i8], [40 x i8]* %3, i64 0, i64 0
  %88 = load i32, i32* %6, align 4
  %89 = sext i32 %88 to i64
  %90 = getelementptr inbounds i8, i8* %87, i64 %89
  %91 = getelementptr inbounds i8, i8* %90, i64 -3
  %92 = getelementptr inbounds [3 x [5 x i8]], [3 x [5 x i8]]* %4, i64 0, i64 2
  %93 = getelementptr inbounds [5 x i8], [5 x i8]* %92, i64 0, i64 0
  %94 = call i32 @strcmp(i8* %91, i8* %93) #4
  %95 = icmp eq i32 %94, 0
  br i1 %95, label %96, label %114

96:                                               ; preds = %86
  store i32 0, i32* %9, align 4
  br label %97

97:                                               ; preds = %109, %96
  %98 = load i32, i32* %9, align 4
  %99 = load i32, i32* %6, align 4
  %100 = sub nsw i32 %99, 3
  %101 = icmp slt i32 %98, %100
  br i1 %101, label %102, label %112

102:                                              ; preds = %97
  %103 = load i32, i32* %9, align 4
  %104 = sext i32 %103 to i64
  %105 = getelementptr inbounds [40 x i8], [40 x i8]* %3, i64 0, i64 %104
  %106 = load i8, i8* %105, align 1
  %107 = sext i8 %106 to i32
  %108 = call i32 (i8*, ...) @printf(i8* getelementptr inbounds ([3 x i8], [3 x i8]* @.str.2, i64 0, i64 0), i32 %107)
  br label %109

109:                                              ; preds = %102
  %110 = load i32, i32* %9, align 4
  %111 = add nsw i32 %110, 1
  store i32 %111, i32* %9, align 4
  br label %97

112:                                              ; preds = %97
  %113 = call i32 (i8*, ...) @printf(i8* getelementptr inbounds ([2 x i8], [2 x i8]* @.str.3, i64 0, i64 0))
  br label %117

114:                                              ; preds = %86, %83
  %115 = getelementptr inbounds [40 x i8], [40 x i8]* %3, i64 0, i64 0
  %116 = call i32 (i8*, ...) @printf(i8* getelementptr inbounds ([4 x i8], [4 x i8]* @.str.4, i64 0, i64 0), i8* %115)
  br label %117

117:                                              ; preds = %114, %112
  br label %118

118:                                              ; preds = %117, %81
  br label %119

119:                                              ; preds = %118, %50
  br label %12

120:                                              ; preds = %12
  %121 = load i32, i32* %1, align 4
  ret i32 %121
}

; Function Attrs: argmemonly nounwind willreturn
declare void @llvm.memcpy.p0i8.p0i8.i64(i8* noalias nocapture writeonly, i8* noalias nocapture readonly, i64, i1 immarg) #1

declare dso_local i32 @__isoc99_scanf(i8*, ...) #2

; Function Attrs: nounwind readonly
declare dso_local i64 @strlen(i8*) #3

; Function Attrs: nounwind readonly
declare dso_local i32 @strcmp(i8*, i8*) #3

declare dso_local i32 @printf(i8*, ...) #2


!llvm.module.flags = !{!0}
!llvm.ident = !{!1}

!0 = !{i32 1, !"wchar_size", i32 4}
!1 = !{!"clang version 10.0.0-4ubuntu1 "}
