; ModuleID = 'source-C-CXX/56/2478.c'
source_filename = "source-C-CXX/56/2478.c"
target datalayout = "e-m:e-p270:32:32-p271:32:32-p272:64:64-i64:64-f80:128-n8:16:32:64-S128"
target triple = "x86_64-pc-linux-gnu"

@__const.main.local = private unnamed_addr constant [3 x [5 x i8]] [[5 x i8] c"er\00\00\00", [5 x i8] c"ly\00\00\00", [5 x i8] c"ing\00\00"], align 1
@.str = private unnamed_addr constant [3 x i8] c"%d\00", align 1
@.str.1 = private unnamed_addr constant [3 x i8] c"%s\00", align 1

; Function Attrs: nofree nounwind sspstrong uwtable
define dso_local i32 @main() local_unnamed_addr #0 {
  %1 = alloca i32, align 4
  %2 = alloca [40 x i8], align 16
  %3 = bitcast i32* %1 to i8*
  call void @llvm.lifetime.start.p0i8(i64 4, i8* nonnull %3) #5
  %4 = getelementptr inbounds [40 x i8], [40 x i8]* %2, i64 0, i64 0
  call void @llvm.lifetime.start.p0i8(i64 40, i8* nonnull %4) #5
  %5 = call i32 (i8*, ...) @__isoc99_scanf(i8* getelementptr inbounds ([3 x i8], [3 x i8]* @.str, i64 0, i64 0), i32* nonnull %1)
  %6 = load i32, i32* %1, align 4, !tbaa !5
  %7 = add nsw i32 %6, -1
  store i32 %7, i32* %1, align 4, !tbaa !5
  %8 = icmp eq i32 %6, 0
  br i1 %8, label %75, label %9

9:                                                ; preds = %0, %71
  %10 = call i32 (i8*, ...) @__isoc99_scanf(i8* getelementptr inbounds ([3 x i8], [3 x i8]* @.str.1, i64 0, i64 0), i8* nonnull %4)
  %11 = call i64 @strlen(i8* noundef nonnull %4) #6
  %12 = trunc i64 %11 to i32
  %13 = icmp sgt i32 %12, 2
  br i1 %13, label %14, label %69

14:                                               ; preds = %9
  %15 = shl i64 %11, 32
  %16 = ashr exact i64 %15, 32
  %17 = getelementptr inbounds [40 x i8], [40 x i8]* %2, i64 0, i64 %16
  %18 = getelementptr inbounds i8, i8* %17, i64 -2
  %19 = call i32 @strcmp(i8* noundef nonnull %18, i8* noundef nonnull dereferenceable(1) getelementptr inbounds ([3 x [5 x i8]], [3 x [5 x i8]]* @__const.main.local, i64 0, i64 0, i64 0)) #6
  %20 = icmp eq i32 %19, 0
  br i1 %20, label %21, label %34

21:                                               ; preds = %14
  %22 = add i64 %11, 4294967294
  %23 = and i64 %22, 4294967295
  br label %26

24:                                               ; preds = %26
  %25 = call i32 @putchar(i32 10)
  br label %71

26:                                               ; preds = %21, %26
  %27 = phi i64 [ 0, %21 ], [ %32, %26 ]
  %28 = getelementptr inbounds [40 x i8], [40 x i8]* %2, i64 0, i64 %27
  %29 = load i8, i8* %28, align 1, !tbaa !9
  %30 = sext i8 %29 to i32
  %31 = call i32 @putchar(i32 %30)
  %32 = add nuw nsw i64 %27, 1
  %33 = icmp eq i64 %32, %23
  br i1 %33, label %24, label %26, !llvm.loop !10

34:                                               ; preds = %14
  %35 = call i32 @strcmp(i8* noundef nonnull %18, i8* noundef nonnull dereferenceable(1) getelementptr inbounds ([3 x [5 x i8]], [3 x [5 x i8]]* @__const.main.local, i64 0, i64 1, i64 0)) #6
  %36 = icmp eq i32 %35, 0
  br i1 %36, label %37, label %50

37:                                               ; preds = %34
  %38 = add i64 %11, 4294967294
  %39 = and i64 %38, 4294967295
  br label %42

40:                                               ; preds = %42
  %41 = call i32 @putchar(i32 10)
  br label %71

42:                                               ; preds = %37, %42
  %43 = phi i64 [ 0, %37 ], [ %48, %42 ]
  %44 = getelementptr inbounds [40 x i8], [40 x i8]* %2, i64 0, i64 %43
  %45 = load i8, i8* %44, align 1, !tbaa !9
  %46 = sext i8 %45 to i32
  %47 = call i32 @putchar(i32 %46)
  %48 = add nuw nsw i64 %43, 1
  %49 = icmp eq i64 %48, %39
  br i1 %49, label %40, label %42, !llvm.loop !12

50:                                               ; preds = %34
  %51 = icmp sgt i32 %12, 3
  br i1 %51, label %52, label %69

52:                                               ; preds = %50
  %53 = getelementptr inbounds i8, i8* %17, i64 -3
  %54 = call i32 @strcmp(i8* noundef nonnull %53, i8* noundef nonnull dereferenceable(1) getelementptr inbounds ([3 x [5 x i8]], [3 x [5 x i8]]* @__const.main.local, i64 0, i64 2, i64 0)) #6
  %55 = icmp eq i32 %54, 0
  br i1 %55, label %56, label %69

56:                                               ; preds = %52
  %57 = add i64 %11, 4294967293
  %58 = and i64 %57, 4294967295
  br label %61

59:                                               ; preds = %61
  %60 = call i32 @putchar(i32 10)
  br label %71

61:                                               ; preds = %56, %61
  %62 = phi i64 [ 0, %56 ], [ %67, %61 ]
  %63 = getelementptr inbounds [40 x i8], [40 x i8]* %2, i64 0, i64 %62
  %64 = load i8, i8* %63, align 1, !tbaa !9
  %65 = sext i8 %64 to i32
  %66 = call i32 @putchar(i32 %65)
  %67 = add nuw nsw i64 %62, 1
  %68 = icmp eq i64 %67, %58
  br i1 %68, label %59, label %61, !llvm.loop !13

69:                                               ; preds = %9, %52, %50
  %70 = call i32 @puts(i8* nonnull %4)
  br label %71

71:                                               ; preds = %40, %69, %59, %24
  %72 = load i32, i32* %1, align 4, !tbaa !5
  %73 = add nsw i32 %72, -1
  store i32 %73, i32* %1, align 4, !tbaa !5
  %74 = icmp eq i32 %72, 0
  br i1 %74, label %75, label %9, !llvm.loop !14

75:                                               ; preds = %71, %0
  call void @llvm.lifetime.end.p0i8(i64 40, i8* nonnull %4) #5
  call void @llvm.lifetime.end.p0i8(i64 4, i8* nonnull %3) #5
  ret i32 0
}

; Function Attrs: argmemonly mustprogress nofree nosync nounwind willreturn
declare void @llvm.lifetime.start.p0i8(i64 immarg, i8* nocapture) #1

; Function Attrs: nofree nounwind
declare noundef i32 @__isoc99_scanf(i8* nocapture noundef readonly, ...) local_unnamed_addr #2

; Function Attrs: argmemonly mustprogress nofree nounwind readonly willreturn
declare i64 @strlen(i8* nocapture) local_unnamed_addr #3

; Function Attrs: argmemonly mustprogress nofree nounwind readonly willreturn
declare i32 @strcmp(i8* nocapture, i8* nocapture) local_unnamed_addr #3

; Function Attrs: argmemonly mustprogress nofree nosync nounwind willreturn
declare void @llvm.lifetime.end.p0i8(i64 immarg, i8* nocapture) #1

; Function Attrs: nofree nounwind
declare noundef i32 @puts(i8* nocapture noundef readonly) local_unnamed_addr #4

; Function Attrs: nofree nounwind
declare noundef i32 @putchar(i32 noundef) local_unnamed_addr #4


!llvm.module.flags = !{!0, !1, !2, !3}
!llvm.ident = !{!4}

!0 = !{i32 1, !"wchar_size", i32 4}
!1 = !{i32 7, !"PIC Level", i32 2}
!2 = !{i32 7, !"PIE Level", i32 2}
!3 = !{i32 7, !"uwtable", i32 1}
!4 = !{!"clang version 13.0.0"}
!5 = !{!6, !6, i64 0}
!6 = !{!"int", !7, i64 0}
!7 = !{!"omnipotent char", !8, i64 0}
!8 = !{!"Simple C/C++ TBAA"}
!9 = !{!7, !7, i64 0}
!10 = distinct !{!10, !11}
!11 = !{!"llvm.loop.mustprogress"}
!12 = distinct !{!12, !11}
!13 = distinct !{!13, !11}
!14 = distinct !{!14, !11}
